; Function Attrs: mustprogress uwtable
define hidden noalias noundef ptr @_ZN3smt11theory_char8mk_valueEPNS_5enodeERNS_15model_generatorE(ptr noundef nonnull align 8 dereferenceable(384) %this, ptr noundef nonnull %n, ptr nocapture nonnull readnone align 8 %mg) unnamed_addr #3 align 2 {
entry:
  %m_id.i = getelementptr inbounds i8, ptr %this, i64 8
  %0 = load i32, ptr %m_id.i, align 8
  %call2 = tail call noundef i32 @_ZNK3smt5enode10get_th_varEi(ptr noundef nonnull align 8 dereferenceable(112) %n, i32 noundef %0)
  %m_var2value.i = getelementptr inbounds i8, ptr %this, i64 208
  %1 = load ptr, ptr %m_var2value.i, align 8
  %idxprom.i.i = zext i32 %call2 to i64
  %arrayidx.i.i = getelementptr inbounds i32, ptr %1, i64 %idxprom.i.i
  %2 = load i32, ptr %arrayidx.i.i, align 4
  %str = getelementptr inbounds i8, ptr %this, i64 88
  %call4 = tail call noundef ptr @_ZNK8seq_util3str7mk_charEj(ptr noundef nonnull align 8 dereferenceable(20) %str, i32 noundef %2)
  %m_factory = getelementptr inbounds i8, ptr %this, i64 376
  %3 = load ptr, ptr %m_factory, align 8
  %tobool.not.i.i.i.i.i = icmp eq ptr %call4, null
  br i1 %tobool.not.i.i.i.i.i, label %_ZN15ref_vector_coreI4expr19ref_manager_wrapperIS0_11ast_managerEE7inc_refEPS0_.exit.i.i, label %if.then.i.i.i.i.i

if.then.i.i.i.i.i:                                ; preds = %entry
  %m_ref_count.i.i.i.i.i.i = getelementptr inbounds i8, ptr %call4, i64 8
  %4 = load i32, ptr %m_ref_count.i.i.i.i.i.i, align 4
  %inc.i.i.i.i.i.i = add i32 %4, 1
  store i32 %inc.i.i.i.i.i.i, ptr %m_ref_count.i.i.i.i.i.i, align 4
  br label %_ZN15ref_vector_coreI4expr19ref_manager_wrapperIS0_11ast_managerEE7inc_refEPS0_.exit.i.i

_ZN15ref_vector_coreI4expr19ref_manager_wrapperIS0_11ast_managerEE7inc_refEPS0_.exit.i.i: ; preds = %if.then.i.i.i.i.i, %entry
  %m_nodes.i.i = getelementptr inbounds i8, ptr %3, i64 184
  %5 = load ptr, ptr %m_nodes.i.i, align 8
  %cmp.i.i.i = icmp eq ptr %5, null
  br i1 %cmp.i.i.i, label %if.then.i.i.i, label %lor.lhs.false.i.i.i

lor.lhs.false.i.i.i:                              ; preds = %_ZN15ref_vector_coreI4expr19ref_manager_wrapperIS0_11ast_managerEE7inc_refEPS0_.exit.i.i
  %arrayidx.i.i.i = getelementptr inbounds i8, ptr %5, i64 -4
  %6 = load i32, ptr %arrayidx.i.i.i, align 4
  %arrayidx4.i.i.i = getelementptr inbounds i8, ptr %5, i64 -8
  %7 = load i32, ptr %arrayidx4.i.i.i, align 4
  %cmp5.i.i.i = icmp eq i32 %6, %7
  br i1 %cmp5.i.i.i, label %if.then.i.i.i, label %_ZN12char_factory9add_trailEP4expr.exit

if.then.i.i.i:                                    ; preds = %lor.lhs.false.i.i.i, %_ZN15ref_vector_coreI4expr19ref_manager_wrapperIS0_11ast_managerEE7inc_refEPS0_.exit.i.i
  tail call void @_ZN6vectorIP4exprLb0EjE13expand_vectorEv(ptr noundef nonnull align 8 dereferenceable(8) %m_nodes.i.i)
  %.pre.i.i.i = load ptr, ptr %m_nodes.i.i, align 8
  %arrayidx8.phi.trans.insert.i.i.i = getelementptr inbounds i8, ptr %.pre.i.i.i, i64 -4
  %.pre1.i.i.i = load i32, ptr %arrayidx8.phi.trans.insert.i.i.i, align 4
  br label %_ZN12char_factory9add_trailEP4expr.exit

_ZN12char_factory9add_trailEP4expr.exit:          ; preds = %lor.lhs.false.i.i.i, %if.then.i.i.i
  %8 = phi i32 [ %.pre1.i.i.i, %if.then.i.i.i ], [ %6, %lor.lhs.false.i.i.i ]
  %9 = phi ptr [ %.pre.i.i.i, %if.then.i.i.i ], [ %5, %lor.lhs.false.i.i.i ]
  %idx.ext.i.i.i = zext i32 %8 to i64
  %add.ptr.i.i.i = getelementptr inbounds ptr, ptr %9, i64 %idx.ext.i.i.i
  store ptr %call4, ptr %add.ptr.i.i.i, align 8
  %10 = load ptr, ptr %m_nodes.i.i, align 8
  %arrayidx10.i.i.i = getelementptr inbounds i8, ptr %10, i64 -4
  %11 = load i32, ptr %arrayidx10.i.i.i, align 4
  %inc.i.i.i = add i32 %11, 1
  store i32 %inc.i.i.i, ptr %arrayidx10.i.i.i, align 4
  %call5 = tail call noalias noundef ptr @_ZN6memory8allocateEm(i64 noundef 16)
  store ptr getelementptr inbounds ({ [7 x ptr] }, ptr @_ZTVN3smt17expr_wrapper_procE, i64 0, i32 0, i64 2), ptr %call5, align 8
  %m_value.i = getelementptr inbounds i8, ptr %call5, i64 8
  store ptr %call4, ptr %m_value.i, align 8
  ret ptr %call5
}